; ModuleID = '31/1651.c'
source_filename = "31/1651.c"
target datalayout = "e-m:e-p270:32:32-p271:32:32-p272:64:64-i64:64-f80:128-n8:16:32:64-S128"
target triple = "x86_64-pc-linux-gnu"

%struct.student = type { [100 x i8], [100 x i8], i8, i32, [100000 x i8], [100 x i8], %struct.student* }

@.str = private unnamed_addr constant [3 x i8] c"%s\00", align 1
@.str.1 = private unnamed_addr constant [4 x i8] c"end\00", align 1
@.str.2 = private unnamed_addr constant [15 x i8] c"%s %c %d %s %s\00", align 1
@.str.3 = private unnamed_addr constant [19 x i8] c"%s %s %c %d %s %s\0A\00", align 1

; Function Attrs: noinline nounwind uwtable
define dso_local %struct.student* @creat() #0 {
  %1 = alloca %struct.student*, align 8
  %2 = alloca %struct.student*, align 8
  %3 = alloca %struct.student*, align 8
  store %struct.student* null, %struct.student** %3, align 8
  %4 = call noalias i8* @malloc(i64 100) #4
  %5 = bitcast i8* %4 to %struct.student*
  store %struct.student* %5, %struct.student** %1, align 8
  %6 = load %struct.student*, %struct.student** %1, align 8
  store %struct.student* %6, %struct.student** %2, align 8
  br label %7

7:                                                ; preds = %0, %18
  %8 = load %struct.student*, %struct.student** %2, align 8
  store %struct.student* %8, %struct.student** %3, align 8
  %9 = load %struct.student*, %struct.student** %2, align 8
  %10 = getelementptr inbounds %struct.student, %struct.student* %9, i32 0, i32 0
  %11 = call i32 (i8*, ...) @__isoc99_scanf(i8* getelementptr inbounds ([3 x i8], [3 x i8]* @.str, i64 0, i64 0), [100 x i8]* %10)
  %12 = load %struct.student*, %struct.student** %2, align 8
  %13 = getelementptr inbounds %struct.student, %struct.student* %12, i32 0, i32 0
  %14 = getelementptr inbounds [100 x i8], [100 x i8]* %13, i64 0, i64 0
  %15 = call i32 @strcmp(i8* %14, i8* getelementptr inbounds ([4 x i8], [4 x i8]* @.str.1, i64 0, i64 0)) #5
  %16 = icmp eq i32 %15, 0
  br i1 %16, label %17, label %18

17:                                               ; preds = %7
  br label %35

18:                                               ; preds = %7
  %19 = load %struct.student*, %struct.student** %2, align 8
  %20 = getelementptr inbounds %struct.student, %struct.student* %19, i32 0, i32 1
  %21 = load %struct.student*, %struct.student** %2, align 8
  %22 = getelementptr inbounds %struct.student, %struct.student* %21, i32 0, i32 2
  %23 = load %struct.student*, %struct.student** %2, align 8
  %24 = getelementptr inbounds %struct.student, %struct.student* %23, i32 0, i32 3
  %25 = load %struct.student*, %struct.student** %2, align 8
  %26 = getelementptr inbounds %struct.student, %struct.student* %25, i32 0, i32 4
  %27 = load %struct.student*, %struct.student** %2, align 8
  %28 = getelementptr inbounds %struct.student, %struct.student* %27, i32 0, i32 5
  %29 = call i32 (i8*, ...) @__isoc99_scanf(i8* getelementptr inbounds ([15 x i8], [15 x i8]* @.str.2, i64 0, i64 0), [100 x i8]* %20, i8* %22, i32* %24, [100000 x i8]* %26, [100 x i8]* %28)
  %30 = call noalias i8* @malloc(i64 100) #4
  %31 = bitcast i8* %30 to %struct.student*
  store %struct.student* %31, %struct.student** %2, align 8
  %32 = load %struct.student*, %struct.student** %2, align 8
  %33 = load %struct.student*, %struct.student** %3, align 8
  %34 = getelementptr inbounds %struct.student, %struct.student* %33, i32 0, i32 6
  store %struct.student* %32, %struct.student** %34, align 8
  br label %7

35:                                               ; preds = %17
  %36 = load %struct.student*, %struct.student** %3, align 8
  %37 = getelementptr inbounds %struct.student, %struct.student* %36, i32 0, i32 6
  store %struct.student* null, %struct.student** %37, align 8
  %38 = load %struct.student*, %struct.student** %1, align 8
  ret %struct.student* %38
}

; Function Attrs: nounwind
declare dso_local noalias i8* @malloc(i64) #1

declare dso_local i32 @__isoc99_scanf(i8*, ...) #2

; Function Attrs: nounwind readonly
declare dso_local i32 @strcmp(i8*, i8*) #3

; Function Attrs: noinline nounwind uwtable
define dso_local %struct.student* @turn(%struct.student* %0) #0 {
  %2 = alloca %struct.student*, align 8
  %3 = alloca %struct.student*, align 8
  %4 = alloca %struct.student*, align 8
  %5 = alloca %struct.student*, align 8
  %6 = alloca %struct.student*, align 8
  store %struct.student* %0, %struct.student** %2, align 8
  store %struct.student* null, %struct.student** %6, align 8
  br label %7

7:                                                ; preds = %32, %1
  %8 = load %struct.student*, %struct.student** %2, align 8
  %9 = getelementptr inbounds %struct.student, %struct.student* %8, i32 0, i32 6
  %10 = load %struct.student*, %struct.student** %9, align 8
  %11 = icmp ne %struct.student* %10, null
  br i1 %11, label %12, label %38

12:                                               ; preds = %7
  store %struct.student* null, %struct.student** %4, align 8
  %13 = load %struct.student*, %struct.student** %2, align 8
  store %struct.student* %13, %struct.student** %3, align 8
  br label %14

14:                                               ; preds = %19, %12
  %15 = load %struct.student*, %struct.student** %3, align 8
  %16 = getelementptr inbounds %struct.student, %struct.student* %15, i32 0, i32 6
  %17 = load %struct.student*, %struct.student** %16, align 8
  %18 = icmp ne %struct.student* %17, null
  br i1 %18, label %19, label %24

19:                                               ; preds = %14
  %20 = load %struct.student*, %struct.student** %3, align 8
  store %struct.student* %20, %struct.student** %4, align 8
  %21 = load %struct.student*, %struct.student** %3, align 8
  %22 = getelementptr inbounds %struct.student, %struct.student* %21, i32 0, i32 6
  %23 = load %struct.student*, %struct.student** %22, align 8
  store %struct.student* %23, %struct.student** %3, align 8
  br label %14

24:                                               ; preds = %14
  %25 = load %struct.student*, %struct.student** %6, align 8
  %26 = icmp eq %struct.student* %25, null
  br i1 %26, label %27, label %32

27:                                               ; preds = %24
  %28 = load %struct.student*, %struct.student** %3, align 8
  store %struct.student* %28, %struct.student** %6, align 8
  %29 = load %struct.student*, %struct.student** %4, align 8
  %30 = load %struct.student*, %struct.student** %6, align 8
  %31 = getelementptr inbounds %struct.student, %struct.student* %30, i32 0, i32 6
  store %struct.student* %29, %struct.student** %31, align 8
  store %struct.student* %29, %struct.student** %5, align 8
  br label %32

32:                                               ; preds = %27, %24
  %33 = load %struct.student*, %struct.student** %4, align 8
  %34 = load %struct.student*, %struct.student** %5, align 8
  %35 = getelementptr inbounds %struct.student, %struct.student* %34, i32 0, i32 6
  store %struct.student* %33, %struct.student** %35, align 8
  store %struct.student* %33, %struct.student** %5, align 8
  %36 = load %struct.student*, %struct.student** %4, align 8
  %37 = getelementptr inbounds %struct.student, %struct.student* %36, i32 0, i32 6
  store %struct.student* null, %struct.student** %37, align 8
  br label %7

38:                                               ; preds = %7
  %39 = load %struct.student*, %struct.student** %6, align 8
  ret %struct.student* %39
}

; Function Attrs: noinline nounwind uwtable
define dso_local void @put(%struct.student* %0) #0 {
  %2 = alloca %struct.student*, align 8
  %3 = alloca %struct.student*, align 8
  store %struct.student* %0, %struct.student** %2, align 8
  %4 = load %struct.student*, %struct.student** %2, align 8
  store %struct.student* %4, %struct.student** %3, align 8
  br label %5

5:                                                ; preds = %36, %1
  %6 = load %struct.student*, %struct.student** %3, align 8
  %7 = icmp ne %struct.student* %6, null
  br i1 %7, label %8, label %40

8:                                                ; preds = %5
  %9 = load %struct.student*, %struct.student** %3, align 8
  %10 = getelementptr inbounds %struct.student, %struct.student* %9, i32 0, i32 0
  %11 = getelementptr inbounds [100 x i8], [100 x i8]* %10, i64 0, i64 0
  %12 = call i32 @strcmp(i8* %11, i8* getelementptr inbounds ([4 x i8], [4 x i8]* @.str.1, i64 0, i64 0)) #5
  %13 = icmp eq i32 %12, 0
  br i1 %13, label %14, label %15

14:                                               ; preds = %8
  br label %36

15:                                               ; preds = %8
  %16 = load %struct.student*, %struct.student** %3, align 8
  %17 = getelementptr inbounds %struct.student, %struct.student* %16, i32 0, i32 0
  %18 = getelementptr inbounds [100 x i8], [100 x i8]* %17, i64 0, i64 0
  %19 = load %struct.student*, %struct.student** %3, align 8
  %20 = getelementptr inbounds %struct.student, %struct.student* %19, i32 0, i32 1
  %21 = getelementptr inbounds [100 x i8], [100 x i8]* %20, i64 0, i64 0
  %22 = load %struct.student*, %struct.student** %3, align 8
  %23 = getelementptr inbounds %struct.student, %struct.student* %22, i32 0, i32 2
  %24 = load i8, i8* %23, align 8
  %25 = sext i8 %24 to i32
  %26 = load %struct.student*, %struct.student** %3, align 8
  %27 = getelementptr inbounds %struct.student, %struct.student* %26, i32 0, i32 3
  %28 = load i32, i32* %27, align 4
  %29 = load %struct.student*, %struct.student** %3, align 8
  %30 = getelementptr inbounds %struct.student, %struct.student* %29, i32 0, i32 4
  %31 = getelementptr inbounds [100000 x i8], [100000 x i8]* %30, i64 0, i64 0
  %32 = load %struct.student*, %struct.student** %3, align 8
  %33 = getelementptr inbounds %struct.student, %struct.student* %32, i32 0, i32 5
  %34 = getelementptr inbounds [100 x i8], [100 x i8]* %33, i64 0, i64 0
  %35 = call i32 (i8*, ...) @printf(i8* getelementptr inbounds ([19 x i8], [19 x i8]* @.str.3, i64 0, i64 0), i8* %18, i8* %21, i32 %25, i32 %28, i8* %31, i8* %34)
  br label %36

36:                                               ; preds = %15, %14
  %37 = load %struct.student*, %struct.student** %3, align 8
  %38 = getelementptr inbounds %struct.student, %struct.student* %37, i32 0, i32 6
  %39 = load %struct.student*, %struct.student** %38, align 8
  store %struct.student* %39, %struct.student** %3, align 8
  br label %5

40:                                               ; preds = %5
  ret void
}

declare dso_local i32 @printf(i8*, ...) #2

; Function Attrs: noinline nounwind uwtable
define dso_local void @main() #0 {
  %1 = alloca %struct.student*, align 8
  %2 = call %struct.student* @creat()
  store %struct.student* %2, %struct.student** %1, align 8
  %3 = load %struct.student*, %struct.student** %1, align 8
  %4 = call %struct.student* @turn(%struct.student* %3)
  store %struct.student* %4, %struct.student** %1, align 8
  %5 = load %struct.student*, %struct.student** %1, align 8
  call void @put(%struct.student* %5)
  ret void
}


!llvm.module.flags = !{!0}
!llvm.ident = !{!1}

!0 = !{i32 1, !"wchar_size", i32 4}
!1 = !{!"clang version 10.0.0-4ubuntu1 "}
